target datalayout = "e-m:e-p270:32:32-p271:32:32-p272:64:64-i64:64-i128:128-f80:128-n8:16:32:64-S128"
target triple = "x86_64-pc-linux-gnu"

@.str.1586 = private unnamed_addr constant [36 x i8] c"Time interval is not specified (15)\00", align 1
@.str.1587 = private unnamed_addr constant [9 x i8] c"%gs (%u)\00", align 1

; Function Attrs: null_pointer_is_valid sspstrong uwtable
define internal void @ulp_ganssDataBitInterval_fmt(ptr noundef %0, i32 noundef %1) #0 {
  %3 = alloca ptr, align 8
  %4 = alloca i32, align 4
  %5 = alloca double, align 8
  store ptr %0, ptr %3, align 8
  store i32 %1, ptr %4, align 4
  %6 = load i32, ptr %4, align 4
  %7 = icmp eq i32 %6, 15
  br i1 %7, label %8, label %13

8:                                                ; preds = %2
  %9 = load ptr, ptr %3, align 8
  %10 = load ptr, ptr %3, align 8
  %11 = call i64 @llvm.objectsize.i64.p0(ptr %10, i1 false, i1 true, i1 true)
  %12 = call i32 (ptr, i64, i32, i64, ptr, ...) @__snprintf_chk(ptr noundef %9, i64 noundef 240, i32 noundef 2, i64 noundef %11, ptr noundef @.str.1586)
  br label %24

13:                                               ; preds = %2
  call void @llvm.lifetime.start.p0(i64 8, ptr %5) #6
  %14 = load i32, ptr %4, align 4
  %15 = uitofp i32 %14 to double
  %16 = call double @pow(double noundef 2.000000e+00, double noundef %15) #6
  %17 = fmul double 1.000000e-01, %16
  store double %17, ptr %5, align 8
  %18 = load ptr, ptr %3, align 8
  %19 = load ptr, ptr %3, align 8
  %20 = call i64 @llvm.objectsize.i64.p0(ptr %19, i1 false, i1 true, i1 true)
  %21 = load double, ptr %5, align 8
  %22 = load i32, ptr %4, align 4
  %23 = call i32 (ptr, i64, i32, i64, ptr, ...) @__snprintf_chk(ptr noundef %18, i64 noundef 240, i32 noundef 2, i64 noundef %20, ptr noundef @.str.1587, double noundef %21, i32 noundef %22)
  call void @llvm.lifetime.end.p0(i64 8, ptr %5) #6
  br label %24

24:                                               ; preds = %13, %8
  ret void
}