; Function Attrs: null_pointer_is_valid sspstrong uwtable
define internal void @ulp_ganssDataBitInterval_fmt(ptr noundef %0, i32 noundef %1) #0 {
  %3 = icmp eq i32 %1, 15
  br i1 %3, label %4, label %6

4:                                                ; preds = %2
  %5 = tail call i32 (ptr, i64, i32, i64, ptr, ...) @__snprintf_chk(ptr noundef %0, i64 noundef 240, i32 noundef 2, i64 noundef -1, ptr noundef nonnull @.str.1586)
  br label %10

6:                                                ; preds = %2
  %7 = uitofp i32 %1 to double
  %exp2 = tail call double @exp2(double %7)
  %8 = fmul double %exp2, 1.000000e-01
  %9 = tail call i32 (ptr, i64, i32, i64, ptr, ...) @__snprintf_chk(ptr noundef %0, i64 noundef 240, i32 noundef 2, i64 noundef -1, ptr noundef nonnull @.str.1587, double noundef %8, i32 noundef %1)
  br label %10

10:                                               ; preds = %6, %4
  ret void
}